target datalayout = "e-m:e-p270:32:32-p271:32:32-p272:64:64-i64:64-i128:128-f80:128-n8:16:32:64-S128"
target triple = "x86_64-pc-linux-gnu"

%struct.SN_env = type { ptr, i32, i32, i32, i32, i32, ptr, ptr }

@s_65 = internal constant [4 x i8] c"\CE\B1\CE\B4", align 1

; Function Attrs: nounwind uwtable
define internal i32 @r_step2a(ptr noundef %0) #0 {
  %2 = alloca i32, align 4
  %3 = alloca ptr, align 8
  %4 = alloca i32, align 4
  %5 = alloca i32, align 4
  %6 = alloca i32, align 4
  %7 = alloca i32, align 4
  %8 = alloca i32, align 4
  store ptr %0, ptr %3, align 8
  %9 = load ptr, ptr %3, align 8
  %10 = getelementptr inbounds nuw %struct.SN_env, ptr %9, i32 0, i32 1
  %11 = load i32, ptr %10, align 8
  %12 = load ptr, ptr %3, align 8
  %13 = getelementptr inbounds nuw %struct.SN_env, ptr %12, i32 0, i32 5
  store i32 %11, ptr %13, align 8
  %14 = load ptr, ptr %3, align 8
  %15 = getelementptr inbounds nuw %struct.SN_env, ptr %14, i32 0, i32 1
  %16 = load i32, ptr %15, align 8
  %17 = sub i32 %16, 7
  %18 = load ptr, ptr %3, align 8
  %19 = getelementptr inbounds nuw %struct.SN_env, ptr %18, i32 0, i32 3
  %20 = load i32, ptr %19, align 8
  %21 = icmp sle i32 %17, %20
  br i1 %21, label %48, label %22

22:                                               ; preds = %1
  %23 = load ptr, ptr %3, align 8
  %24 = getelementptr inbounds nuw %struct.SN_env, ptr %23, i32 0, i32 0
  %25 = load ptr, ptr %24, align 8
  %26 = load ptr, ptr %3, align 8
  %27 = getelementptr inbounds nuw %struct.SN_env, ptr %26, i32 0, i32 1
  %28 = load i32, ptr %27, align 8
  %29 = sub i32 %28, 1
  %30 = sext i32 %29 to i64
  %31 = getelementptr inbounds i8, ptr %25, i64 %30
  %32 = load i8, ptr %31, align 1
  %33 = zext i8 %32 to i32
  %34 = icmp ne i32 %33, 131
  br i1 %34, label %35, label %49

35:                                               ; preds = %22
  %36 = load ptr, ptr %3, align 8
  %37 = getelementptr inbounds nuw %struct.SN_env, ptr %36, i32 0, i32 0
  %38 = load ptr, ptr %37, align 8
  %39 = load ptr, ptr %3, align 8
  %40 = getelementptr inbounds nuw %struct.SN_env, ptr %39, i32 0, i32 1
  %41 = load i32, ptr %40, align 8
  %42 = sub i32 %41, 1
  %43 = sext i32 %42 to i64
  %44 = getelementptr inbounds i8, ptr %38, i64 %43
  %45 = load i8, ptr %44, align 1
  %46 = zext i8 %45 to i32
  %47 = icmp ne i32 %46, 189
  br i1 %47, label %48, label %49

48:                                               ; preds = %35, %1
  store i32 0, ptr %2, align 4
  br label %115

49:                                               ; preds = %35, %22
  %50 = load ptr, ptr %3, align 8
  %51 = call i32 @find_among_b(ptr noundef %50, ptr noundef @a_24, i32 noundef 2)
  %52 = icmp ne i32 %51, 0
  br i1 %52, label %54, label %53

53:                                               ; preds = %49
  store i32 0, ptr %2, align 4
  br label %115

54:                                               ; preds = %49
  %55 = load ptr, ptr %3, align 8
  %56 = getelementptr inbounds nuw %struct.SN_env, ptr %55, i32 0, i32 1
  %57 = load i32, ptr %56, align 8
  %58 = load ptr, ptr %3, align 8
  %59 = getelementptr inbounds nuw %struct.SN_env, ptr %58, i32 0, i32 4
  store i32 %57, ptr %59, align 4
  call void @llvm.lifetime.start.p0(i64 4, ptr %4) #3
  %60 = load ptr, ptr %3, align 8
  %61 = call i32 @slice_del(ptr noundef %60)
  store i32 %61, ptr %4, align 4
  %62 = load i32, ptr %4, align 4
  %63 = icmp slt i32 %62, 0
  br i1 %63, label %64, label %66

64:                                               ; preds = %54
  %65 = load i32, ptr %4, align 4
  store i32 %65, ptr %2, align 4
  store i32 1, ptr %5, align 4
  br label %67

66:                                               ; preds = %54
  store i32 0, ptr %5, align 4
  br label %67

67:                                               ; preds = %66, %64
  call void @llvm.lifetime.end.p0(i64 4, ptr %4) #3
  %68 = load i32, ptr %5, align 4
  switch i32 %68, label %117 [
    i32 0, label %69
    i32 1, label %115
  ]

69:                                               ; preds = %67
  call void @llvm.lifetime.start.p0(i64 4, ptr %6) #3
  %70 = load ptr, ptr %3, align 8
  %71 = getelementptr inbounds nuw %struct.SN_env, ptr %70, i32 0, i32 2
  %72 = load i32, ptr %71, align 4
  %73 = load ptr, ptr %3, align 8
  %74 = getelementptr inbounds nuw %struct.SN_env, ptr %73, i32 0, i32 1
  %75 = load i32, ptr %74, align 8
  %76 = sub i32 %72, %75
  store i32 %76, ptr %6, align 4
  %77 = load ptr, ptr %3, align 8
  %78 = call i32 @find_among_b(ptr noundef %77, ptr noundef @a_25, i32 noundef 10)
  %79 = icmp ne i32 %78, 0
  br i1 %79, label %81, label %80

80:                                               ; preds = %69
  br label %82

81:                                               ; preds = %69
  store i32 0, ptr %2, align 4
  store i32 1, ptr %5, align 4
  br label %90

82:                                               ; preds = %80
  %83 = load ptr, ptr %3, align 8
  %84 = getelementptr inbounds nuw %struct.SN_env, ptr %83, i32 0, i32 2
  %85 = load i32, ptr %84, align 4
  %86 = load i32, ptr %6, align 4
  %87 = sub i32 %85, %86
  %88 = load ptr, ptr %3, align 8
  %89 = getelementptr inbounds nuw %struct.SN_env, ptr %88, i32 0, i32 1
  store i32 %87, ptr %89, align 8
  store i32 0, ptr %5, align 4
  br label %90

90:                                               ; preds = %82, %81
  call void @llvm.lifetime.end.p0(i64 4, ptr %6) #3
  %91 = load i32, ptr %5, align 4
  switch i32 %91, label %117 [
    i32 0, label %92
    i32 1, label %115
  ]

92:                                               ; preds = %90
  call void @llvm.lifetime.start.p0(i64 4, ptr %7) #3
  call void @llvm.lifetime.start.p0(i64 4, ptr %8) #3
  %93 = load ptr, ptr %3, align 8
  %94 = getelementptr inbounds nuw %struct.SN_env, ptr %93, i32 0, i32 1
  %95 = load i32, ptr %94, align 8
  store i32 %95, ptr %8, align 4
  %96 = load ptr, ptr %3, align 8
  %97 = load ptr, ptr %3, align 8
  %98 = getelementptr inbounds nuw %struct.SN_env, ptr %97, i32 0, i32 1
  %99 = load i32, ptr %98, align 8
  %100 = load ptr, ptr %3, align 8
  %101 = getelementptr inbounds nuw %struct.SN_env, ptr %100, i32 0, i32 1
  %102 = load i32, ptr %101, align 8
  %103 = call i32 @insert_s(ptr noundef %96, i32 noundef %99, i32 noundef %102, i32 noundef 4, ptr noundef @s_65)
  store i32 %103, ptr %7, align 4
  %104 = load i32, ptr %8, align 4
  %105 = load ptr, ptr %3, align 8
  %106 = getelementptr inbounds nuw %struct.SN_env, ptr %105, i32 0, i32 1
  store i32 %104, ptr %106, align 8
  call void @llvm.lifetime.end.p0(i64 4, ptr %8) #3
  %107 = load i32, ptr %7, align 4
  %108 = icmp slt i32 %107, 0
  br i1 %108, label %109, label %111

109:                                              ; preds = %92
  %110 = load i32, ptr %7, align 4
  store i32 %110, ptr %2, align 4
  store i32 1, ptr %5, align 4
  br label %112

111:                                              ; preds = %92
  store i32 0, ptr %5, align 4
  br label %112

112:                                              ; preds = %111, %109
  call void @llvm.lifetime.end.p0(i64 4, ptr %7) #3
  %113 = load i32, ptr %5, align 4
  switch i32 %113, label %117 [
    i32 0, label %114
    i32 1, label %115
  ]

114:                                              ; preds = %112
  store i32 1, ptr %2, align 4
  br label %115

115:                                              ; preds = %114, %112, %90, %67, %53, %48
  %116 = load i32, ptr %2, align 4
  ret i32 %116

117:                                              ; preds = %112, %90, %67
  unreachable
}