; Function Attrs: nounwind uwtable
define internal fastcc i32 @r_step2a(ptr noundef initializes((24, 28)) %0) unnamed_addr #0 {
  %2 = getelementptr inbounds nuw i8, ptr %0, i64 8
  %3 = load i32, ptr %2, align 8
  %4 = getelementptr inbounds nuw i8, ptr %0, i64 24
  store i32 %3, ptr %4, align 8
  %5 = add i32 %3, -7
  %6 = getelementptr inbounds nuw i8, ptr %0, i64 16
  %7 = load i32, ptr %6, align 8
  %.not = icmp sgt i32 %5, %7
  br i1 %.not, label %8, label %31

8:                                                ; preds = %1
  %9 = load ptr, ptr %0, align 8
  %10 = add i32 %3, -1
  %11 = sext i32 %10 to i64
  %12 = getelementptr inbounds i8, ptr %9, i64 %11
  %13 = load i8, ptr %12, align 1
  switch i8 %13, label %31 [
    i8 -125, label %14
    i8 -67, label %14
  ]

14:                                               ; preds = %8, %8
  %15 = tail call i32 @find_among_b(ptr noundef nonnull %0, ptr noundef nonnull @a_24, i32 noundef 2) #2
  %.not38 = icmp eq i32 %15, 0
  br i1 %.not38, label %31, label %16

16:                                               ; preds = %14
  %17 = load i32, ptr %2, align 8
  %18 = getelementptr inbounds nuw i8, ptr %0, i64 20
  store i32 %17, ptr %18, align 4
  %19 = tail call i32 @slice_del(ptr noundef nonnull %0) #2
  %20 = icmp sgt i32 %19, -1
  br i1 %20, label %21, label %31

21:                                               ; preds = %16
  %22 = getelementptr inbounds nuw i8, ptr %0, i64 12
  %23 = load i32, ptr %22, align 4
  %24 = load i32, ptr %2, align 8
  %25 = tail call i32 @find_among_b(ptr noundef nonnull %0, ptr noundef nonnull @a_25, i32 noundef 10) #2
  %.not39.not = icmp eq i32 %25, 0
  br i1 %.not39.not, label %26, label %31

26:                                               ; preds = %21
  %.neg = sub i32 %24, %23
  %27 = load i32, ptr %22, align 4
  %28 = add i32 %27, %.neg
  store i32 %28, ptr %2, align 8
  %29 = tail call i32 @insert_s(ptr noundef nonnull %0, i32 noundef %28, i32 noundef %28, i32 noundef 4, ptr noundef nonnull @s_65) #2
  store i32 %28, ptr %2, align 8
  %30 = icmp sgt i32 %29, -1
  %spec.select = select i1 %30, i32 1, i32 %29
  br label %31

31:                                               ; preds = %21, %26, %16, %14, %1, %8
  %.0 = phi i32 [ %19, %16 ], [ 0, %8 ], [ 0, %1 ], [ 0, %14 ], [ %spec.select, %26 ], [ 0, %21 ]
  ret i32 %.0
}